target datalayout = "e-m:e-p270:32:32-p271:32:32-p272:64:64-i64:64-i128:128-f80:128-n8:16:32:64-S128"
target triple = "x86_64-unknown-linux-gnu"

%"class.openvdb::v11_0::math::Vec3" = type { %"class.openvdb::v11_0::math::Tuple" }
%"class.openvdb::v11_0::math::Tuple" = type { [3 x double] }
%"class.openvdb::v11_0::math::BBox" = type { %"class.openvdb::v11_0::math::Vec3", %"class.openvdb::v11_0::math::Vec3" }

; Function Attrs: mustprogress nounwind uwtable
define linkonce_odr void @_ZN7openvdb5v11_04math4BBoxINS1_4Vec3IdEEEC2ERKS4_S7_(ptr noundef nonnull align 8 dereferenceable(48) %this, ptr noundef nonnull align 8 dereferenceable(24) %xyzMin, ptr noundef nonnull align 8 dereferenceable(24) %xyzMax) unnamed_addr #5 comdat align 2 {
entry:
  %this.addr = alloca ptr, align 8
  %xyzMin.addr = alloca ptr, align 8
  %xyzMax.addr = alloca ptr, align 8
  store ptr %this, ptr %this.addr, align 8
  store ptr %xyzMin, ptr %xyzMin.addr, align 8
  store ptr %xyzMax, ptr %xyzMax.addr, align 8
  %this1 = load ptr, ptr %this.addr, align 8
  %mMin = getelementptr inbounds %"class.openvdb::v11_0::math::BBox", ptr %this1, i32 0, i32 0
  %0 = load ptr, ptr %xyzMin.addr, align 8
  call void @llvm.memcpy.p0.p0.i64(ptr align 8 %mMin, ptr align 8 %0, i64 24, i1 false)
  %mMax = getelementptr inbounds %"class.openvdb::v11_0::math::BBox", ptr %this1, i32 0, i32 1
  %1 = load ptr, ptr %xyzMax.addr, align 8
  call void @llvm.memcpy.p0.p0.i64(ptr align 8 %mMax, ptr align 8 %1, i64 24, i1 false)
  ret void
}

; Function Attrs: mustprogress nounwind uwtable
define linkonce_odr noundef nonnull align 8 dereferenceable(24) ptr @_ZNK7openvdb5v11_04math4BBoxINS1_4Vec3IdEEE3maxEv(ptr noundef nonnull align 8 dereferenceable(48) %this) #5 comdat align 2 {
entry:
  %this.addr = alloca ptr, align 8
  store ptr %this, ptr %this.addr, align 8
  %this1 = load ptr, ptr %this.addr, align 8
  %mMax = getelementptr inbounds %"class.openvdb::v11_0::math::BBox", ptr %this1, i32 0, i32 1
  ret ptr %mMax
}

; Function Attrs: mustprogress nounwind uwtable
define linkonce_odr noundef nonnull align 8 dereferenceable(24) ptr @_ZNK7openvdb5v11_04math4BBoxINS1_4Vec3IdEEE3minEv(ptr noundef nonnull align 8 dereferenceable(48) %this) #5 comdat align 2 {
entry:
  %this.addr = alloca ptr, align 8
  store ptr %this, ptr %this.addr, align 8
  %this1 = load ptr, ptr %this.addr, align 8
  %mMin = getelementptr inbounds %"class.openvdb::v11_0::math::BBox", ptr %this1, i32 0, i32 0
  ret ptr %mMin
}

; Function Attrs: mustprogress uwtable
define void @_ZNK7openvdb5v11_04math9Transform12worldToIndexERKNS1_4BBoxINS1_4Vec3IdEEEE(ptr noalias sret(%"class.openvdb::v11_0::math::BBox") align 8 %agg.result, ptr noundef nonnull align 8 dereferenceable(16) %this, ptr noundef nonnull align 8 dereferenceable(48) %worldBBox) #4 align 2 {
entry:
  %this.addr = alloca ptr, align 8
  %worldBBox.addr = alloca ptr, align 8
  %indexMin = alloca %"class.openvdb::v11_0::math::Vec3", align 8
  %indexMax = alloca %"class.openvdb::v11_0::math::Vec3", align 8
  store ptr %this, ptr %this.addr, align 8
  store ptr %worldBBox, ptr %worldBBox.addr, align 8
  %this1 = load ptr, ptr %this.addr, align 8
  %0 = load ptr, ptr %worldBBox.addr, align 8
  %call = call noundef nonnull align 8 dereferenceable(24) ptr @_ZNK7openvdb5v11_04math4BBoxINS1_4Vec3IdEEE3minEv(ptr noundef nonnull align 8 dereferenceable(48) %0)
  %1 = load ptr, ptr %worldBBox.addr, align 8
  %call2 = call noundef nonnull align 8 dereferenceable(24) ptr @_ZNK7openvdb5v11_04math4BBoxINS1_4Vec3IdEEE3maxEv(ptr noundef nonnull align 8 dereferenceable(48) %1)
  call void @_ZN7openvdb5v11_04math15calculateBoundsERKNS1_9TransformERKNS1_4Vec3IdEES8_RS6_S9_(ptr noundef nonnull align 8 dereferenceable(16) %this1, ptr noundef nonnull align 8 dereferenceable(24) %call, ptr noundef nonnull align 8 dereferenceable(24) %call2, ptr noundef nonnull align 8 dereferenceable(24) %indexMin, ptr noundef nonnull align 8 dereferenceable(24) %indexMax)
  call void @_ZN7openvdb5v11_04math4BBoxINS1_4Vec3IdEEEC2ERKS4_S7_(ptr noundef nonnull align 8 dereferenceable(48) %agg.result, ptr noundef nonnull align 8 dereferenceable(24) %indexMin, ptr noundef nonnull align 8 dereferenceable(24) %indexMax)
  ret void
}