; Function Attrs: mustprogress uwtable
define void @_ZNK7openvdb5v11_04math9Transform12worldToIndexERKNS1_4BBoxINS1_4Vec3IdEEEE(ptr noalias nocapture writeonly sret(%"class.openvdb::v11_0::math::BBox") align 8 %agg.result, ptr nocapture noundef nonnull readonly align 8 dereferenceable(16) %this, ptr nocapture noundef nonnull readonly align 8 dereferenceable(48) %worldBBox) local_unnamed_addr #3 align 2 {
entry:
  %indexMin = alloca %"class.openvdb::v11_0::math::Vec3", align 8
  %indexMax = alloca %"class.openvdb::v11_0::math::Vec3", align 8
  %mMax.i = getelementptr inbounds i8, ptr %worldBBox, i64 24
  call void @_ZN7openvdb5v11_04math15calculateBoundsERKNS1_9TransformERKNS1_4Vec3IdEES8_RS6_S9_(ptr noundef nonnull align 8 dereferenceable(16) %this, ptr noundef nonnull align 8 dereferenceable(24) %worldBBox, ptr noundef nonnull align 8 dereferenceable(24) %mMax.i, ptr noundef nonnull align 8 dereferenceable(24) %indexMin, ptr noundef nonnull align 8 dereferenceable(24) %indexMax)
  call void @llvm.memcpy.p0.p0.i64(ptr noundef nonnull align 8 dereferenceable(24) %agg.result, ptr noundef nonnull align 8 dereferenceable(24) %indexMin, i64 24, i1 false)
  %mMax.i2 = getelementptr inbounds i8, ptr %agg.result, i64 24
  call void @llvm.memcpy.p0.p0.i64(ptr noundef nonnull align 8 dereferenceable(24) %mMax.i2, ptr noundef nonnull align 8 dereferenceable(24) %indexMax, i64 24, i1 false)
  ret void
}